; Function Attrs: nounwind uwtable
define ptr @_php_math_longtobase(i64 noundef %0, i32 noundef %1) local_unnamed_addr #0 {
  %3 = alloca [65 x i8], align 16
  %4 = add i32 %1, -37
  %or.cond = icmp ult i32 %4, -35
  br i1 %or.cond, label %5, label %7

5:                                                ; preds = %2
  %6 = load ptr, ptr @zend_empty_string, align 8
  br label %29

7:                                                ; preds = %2
  %8 = getelementptr inbounds i8, ptr %3, i64 64
  store i8 0, ptr %8, align 16
  %9 = zext nneg i32 %1 to i64
  br label %10

10:                                               ; preds = %10, %7
  %.070 = phi ptr [ %8, %7 ], [ %15, %10 ]
  %.0 = phi i64 [ %0, %7 ], [ %16, %10 ]
  %11 = icmp ugt ptr %.070, %3
  call void @llvm.assume(i1 %11)
  %12 = urem i64 %.0, %9
  %13 = getelementptr inbounds [37 x i8], ptr @_php_math_longtobase_pwr2.digits, i64 0, i64 %12
  %14 = load i8, ptr %13, align 1
  %15 = getelementptr inbounds i8, ptr %.070, i64 -1
  store i8 %14, ptr %15, align 1
  %16 = udiv i64 %.0, %9
  %.not = icmp ult i64 %.0, %9
  br i1 %.not, label %17, label %10

17:                                               ; preds = %10
  %18 = ptrtoint ptr %8 to i64
  %19 = ptrtoint ptr %15 to i64
  %20 = sub i64 %18, %19
  %21 = and i64 %20, -8
  %22 = add i64 %21, 32
  %23 = call noalias ptr @_emalloc(i64 noundef %22) #19
  store i32 1, ptr %23, align 4
  %24 = getelementptr inbounds i8, ptr %23, i64 4
  store i32 22, ptr %24, align 4
  %25 = getelementptr inbounds i8, ptr %23, i64 8
  store i64 0, ptr %25, align 8
  %26 = getelementptr inbounds i8, ptr %23, i64 16
  store i64 %20, ptr %26, align 8
  %27 = getelementptr inbounds i8, ptr %23, i64 24
  call void @llvm.memcpy.p0.p0.i64(ptr noundef nonnull align 8 dereferenceable(1) %27, ptr noundef nonnull align 1 dereferenceable(1) %15, i64 %20, i1 false)
  %28 = getelementptr inbounds [1 x i8], ptr %27, i64 0, i64 %20
  store i8 0, ptr %28, align 1
  br label %29

29:                                               ; preds = %17, %5
  %.069 = phi ptr [ %6, %5 ], [ %23, %17 ]
  ret ptr %.069
}